; Function Attrs: mustprogress uwtable
define void @_ZN8QuantLib23AnalyticPTDHestonEngineC2ERKN5boost10shared_ptrINS_33PiecewiseTimeDependentHestonModelEEEm(ptr noundef nonnull align 8 dereferenceable(392) %this, ptr noundef nonnull align 8 dereferenceable(16) %model, i64 noundef %integrationOrder) unnamed_addr #8 align 2 personality ptr @__gxx_personality_v0 {
entry:
  tail call void @_ZN8QuantLib18GenericModelEngineINS_33PiecewiseTimeDependentHestonModelENS_6Option9argumentsENS_14OneAssetOption7resultsEEC2ERKN5boost10shared_ptrIS1_EE(ptr noundef nonnull align 8 dereferenceable(352) %this, ptr noundef nonnull align 8 dereferenceable(16) %model)
  store ptr getelementptr inbounds inrange(-16, 56) (i8, ptr @_ZTVN8QuantLib23AnalyticPTDHestonEngineE, i64 16), ptr %this, align 8, !tbaa !35
  %add.ptr = getelementptr inbounds i8, ptr %this, i64 56
  store ptr getelementptr inbounds inrange(-16, 32) (i8, ptr @_ZTVN8QuantLib23AnalyticPTDHestonEngineE, i64 88), ptr %add.ptr, align 8, !tbaa !35
  %evaluations_ = getelementptr inbounds nuw i8, ptr %this, i64 352
  store i64 0, ptr %evaluations_, align 8, !tbaa !83
  %cpxLog_ = getelementptr inbounds nuw i8, ptr %this, i64 360
  store i32 0, ptr %cpxLog_, align 8, !tbaa !110
  %integration_ = getelementptr inbounds nuw i8, ptr %this, i64 368
  %call = invoke noalias noundef nonnull dereferenceable(40) ptr @_Znwm(i64 noundef 40) #31
          to label %invoke.cont unwind label %lpad

invoke.cont:                                      ; preds = %entry
  invoke void @_ZN8QuantLib20AnalyticHestonEngine11Integration13gaussLaguerreEm(ptr dead_on_unwind nonnull writable sret(%"class.QuantLib::AnalyticHestonEngine::Integration") align 8 %call, i64 noundef %integrationOrder)
          to label %invoke.cont3 unwind label %lpad2

invoke.cont3:                                     ; preds = %invoke.cont
  store ptr %call, ptr %integration_, align 8, !tbaa !111
  %pn.i = getelementptr inbounds nuw i8, ptr %this, i64 376
  store ptr null, ptr %pn.i, align 8, !tbaa !37
  invoke void @_ZN5boost6detail20sp_pointer_constructIN8QuantLib20AnalyticHestonEngine11IntegrationES4_EEvPNS_10shared_ptrIT_EEPT0_RNS0_12shared_countE(ptr noundef nonnull %integration_, ptr noundef nonnull %call, ptr noundef nonnull align 8 dereferenceable(8) %pn.i)
          to label %invoke.cont6 unwind label %lpad.i

lpad.i:                                           ; preds = %invoke.cont3
  %0 = landingpad { ptr, i32 }
          cleanup
  tail call void @_ZN5boost6detail12shared_countD2Ev(ptr noundef nonnull align 8 dereferenceable(8) %pn.i) #28
  br label %ehcleanup

invoke.cont6:                                     ; preds = %invoke.cont3
  %andersenPiterbargEpsilon_ = getelementptr inbounds nuw i8, ptr %this, i64 384
  store double 0x47EFFFFFE0000000, ptr %andersenPiterbargEpsilon_, align 8, !tbaa !112
  ret void

lpad:                                             ; preds = %entry
  %1 = landingpad { ptr, i32 }
          cleanup
  br label %ehcleanup

lpad2:                                            ; preds = %invoke.cont
  %2 = landingpad { ptr, i32 }
          cleanup
  tail call void @_ZdlPvm(ptr noundef nonnull %call, i64 noundef 40) #32
  br label %ehcleanup

ehcleanup:                                        ; preds = %lpad, %lpad.i, %lpad2
  %.pn = phi { ptr, i32 } [ %2, %lpad2 ], [ %1, %lpad ], [ %0, %lpad.i ]
  tail call void @_ZN8QuantLib18GenericModelEngineINS_33PiecewiseTimeDependentHestonModelENS_6Option9argumentsENS_14OneAssetOption7resultsEED2Ev(ptr noundef nonnull align 8 dereferenceable(352) %this) #28
  resume { ptr, i32 } %.pn
}